(dp1
S'\x00'
I0
sS' '
I2
sS'('
I6
sS'\xab'
I84
sS','
I8
sS'0'
I11
sS'4'
I15
sS'8'
I19
sS'\xc3'
I85
sS'D'
I28
sS'H'
I32
sS'L'
I36
sS'P'
I40
sS'T'
I44
sS'X'
I48
sS'd'
I57
sS'h'
I61
sS'l'
I65
sS'p'
I69
sS't'
I73
sS'x'
I77
sS'\xa4'
I81
sS"'"
I5
sS'3'
I14
sS'7'
I18
sS';'
I22
sS'?'
I24
sS'C'
I27
sS'G'
I31
sS'K'
I35
sS'O'
I39
sS'S'
I43
sS'W'
I47
sS'['
I51
sS'_'
I53
sS'c'
I56
sS'g'
I60
sS'k'
I64
sS'o'
I68
sS's'
I72
sS'w'
I76
sS'\n'
I1
sS'"'
I4
sS'\xa9'
I83
sS'.'
I10
sS'2'
I13
sS'6'
I17
sS':'
I21
sS'B'
I26
sS'F'
I30
sS'J'
I34
sS'N'
I38
sS'R'
I42
sS'V'
I46
sS'Z'
I50
sS'b'
I55
sS'f'
I59
sS'j'
I63
sS'n'
I67
sS'r'
I71
sS'v'
I75
sS'z'
I79
sS'\x86'
I80
sS'!'
I3
sS'\xa6'
I82
sS')'
I7
sS'-'
I9
sS'1'
I12
sS'5'
I16
sS'9'
I20
sS'='
I23
sS'A'
I25
sS'E'
I29
sS'I'
I33
sS'M'
I37
sS'Q'
I41
sS'U'
I45
sS'Y'
I49
sS']'
I52
sS'a'
I54
sS'e'
I58
sS'i'
I62
sS'm'
I66
sS'q'
I70
sS'u'
I74
sS'y'
I78
s.